target datalayout = "e-m:e-p270:32:32-p271:32:32-p272:64:64-i64:64-i128:128-f80:128-n8:16:32:64-S128"
target triple = "x86_64-pc-linux-gnu"

%struct.sensor_info = type { ptr, ptr, ptr, ptr }
%struct.anon = type { i32, %struct.sensor_info }

@hf_ipmi_se_2f_stype = internal global i32 0, align 4
@hf_ipmi_se_2f_evtype = internal global i32 0, align 4
@.str.783 = private unnamed_addr constant [12 x i8] c"%s (0x%02x)\00", align 1
@get_sensor_info.si_oem = internal constant %struct.sensor_info { ptr null, ptr null, ptr null, ptr @.str.833 }, align 8
@get_sensor_info.si_rsrv = internal constant %struct.sensor_info { ptr null, ptr null, ptr null, ptr @.str.508 }, align 8

; Function Attrs: nounwind null_pointer_is_valid sspstrong uwtable
define internal ptr @get_sensor_info(i32 noundef %0) #3 {
  %2 = alloca ptr, align 8
  %3 = alloca i32, align 4
  %4 = alloca i32, align 4
  %5 = alloca i32, align 4
  store i32 %0, ptr %3, align 4
  call void @llvm.lifetime.start.p0(i64 4, ptr %4) #5
  store i32 0, ptr %4, align 4
  br label %6

6:                                                ; preds = %24, %1
  %7 = load i32, ptr %4, align 4
  %8 = zext i32 %7 to i64
  %9 = icmp ult i64 %8, 49
  br i1 %9, label %10, label %27

10:                                               ; preds = %6
  %11 = load i32, ptr %4, align 4
  %12 = zext i32 %11 to i64
  %13 = getelementptr [49 x %struct.anon], ptr @get_sensor_info.si_tab, i64 0, i64 %12
  %14 = getelementptr inbounds nuw %struct.anon, ptr %13, i32 0, i32 0
  %15 = load i32, ptr %14, align 8
  %16 = load i32, ptr %3, align 4
  %17 = icmp eq i32 %15, %16
  br i1 %17, label %18, label %23

18:                                               ; preds = %10
  %19 = load i32, ptr %4, align 4
  %20 = zext i32 %19 to i64
  %21 = getelementptr [49 x %struct.anon], ptr @get_sensor_info.si_tab, i64 0, i64 %20
  %22 = getelementptr inbounds nuw %struct.anon, ptr %21, i32 0, i32 1
  store ptr %22, ptr %2, align 8
  store i32 1, ptr %5, align 4
  br label %35

23:                                               ; preds = %10
  br label %24

24:                                               ; preds = %23
  %25 = load i32, ptr %4, align 4
  %26 = add i32 %25, 1
  store i32 %26, ptr %4, align 4
  br label %6, !llvm.loop !9

27:                                               ; preds = %6
  %28 = load i32, ptr %3, align 4
  %29 = icmp uge i32 %28, 192
  br i1 %29, label %30, label %34

30:                                               ; preds = %27
  %31 = load i32, ptr %3, align 4
  %32 = icmp ule i32 %31, 255
  br i1 %32, label %33, label %34

33:                                               ; preds = %30
  store ptr @get_sensor_info.si_oem, ptr %2, align 8
  store i32 1, ptr %5, align 4
  br label %35

34:                                               ; preds = %30, %27
  store ptr @get_sensor_info.si_rsrv, ptr %2, align 8
  store i32 1, ptr %5, align 4
  br label %35

35:                                               ; preds = %34, %33, %18
  call void @llvm.lifetime.end.p0(i64 4, ptr %4) #5
  %36 = load ptr, ptr %2, align 8
  ret ptr %36
}

; Function Attrs: null_pointer_is_valid sspstrong uwtable
define internal void @rs2f(ptr noundef %0, ptr noundef %1, ptr noundef %2) #0 {
  %4 = alloca ptr, align 8
  %5 = alloca ptr, align 8
  %6 = alloca ptr, align 8
  %7 = alloca i8, align 1
  %8 = alloca ptr, align 8
  store ptr %0, ptr %4, align 8
  store ptr %1, ptr %5, align 8
  store ptr %2, ptr %6, align 8
  call void @llvm.lifetime.start.p0(i64 1, ptr %7) #5
  call void @llvm.lifetime.start.p0(i64 8, ptr %8) #5
  %9 = load ptr, ptr %4, align 8
  %10 = call zeroext i8 @tvb_get_uint8(ptr noundef %9, i32 noundef 0)
  store i8 %10, ptr %7, align 1
  %11 = load i8, ptr %7, align 1
  %12 = zext i8 %11 to i32
  %13 = call ptr @get_sensor_info(i32 noundef %12)
  store ptr %13, ptr %8, align 8
  %14 = load ptr, ptr %6, align 8
  %15 = load i32, ptr @hf_ipmi_se_2f_stype, align 4
  %16 = load ptr, ptr %4, align 8
  %17 = load i8, ptr %7, align 1
  %18 = zext i8 %17 to i32
  %19 = load ptr, ptr %8, align 8
  %20 = getelementptr inbounds nuw %struct.sensor_info, ptr %19, i32 0, i32 3
  %21 = load ptr, ptr %20, align 8
  %22 = load i8, ptr %7, align 1
  %23 = zext i8 %22 to i32
  %24 = call ptr (ptr, i32, ptr, i32, i32, i32, ptr, ...) @proto_tree_add_uint_format_value(ptr noundef %14, i32 noundef %15, ptr noundef %16, i32 noundef 0, i32 noundef 1, i32 noundef %18, ptr noundef @.str.783, ptr noundef %21, i32 noundef %23)
  %25 = load ptr, ptr %6, align 8
  %26 = load i32, ptr @hf_ipmi_se_2f_evtype, align 4
  %27 = load ptr, ptr %4, align 8
  %28 = call ptr @proto_tree_add_item(ptr noundef %25, i32 noundef %26, ptr noundef %27, i32 noundef 1, i32 noundef 1, i32 noundef -2147483648)
  call void @llvm.lifetime.end.p0(i64 8, ptr %8) #5
  call void @llvm.lifetime.end.p0(i64 1, ptr %7) #5
  ret void
}