; Function Attrs: null_pointer_is_valid sspstrong uwtable
define internal void @rs2f(ptr noundef %0, ptr readnone captures(none) %1, ptr noundef %2) #0 {
  %4 = tail call zeroext i8 @tvb_get_uint8(ptr noundef %0, i32 noundef 0)
  %5 = zext i8 %4 to i32
  br label %7

6:                                                ; preds = %7
  %indvars.iv.next.i = add nuw nsw i64 %indvars.iv.i, 1
  %exitcond.not.i = icmp eq i64 %indvars.iv.next.i, 49
  br i1 %exitcond.not.i, label %13, label %7, !llvm.loop !9

7:                                                ; preds = %6, %3
  %indvars.iv.i = phi i64 [ 0, %3 ], [ %indvars.iv.next.i, %6 ]
  %8 = getelementptr [49 x %struct.anon], ptr @get_sensor_info.si_tab, i64 0, i64 %indvars.iv.i
  %9 = load i32, ptr %8, align 8
  %10 = icmp eq i32 %9, %5
  br i1 %10, label %11, label %6

11:                                               ; preds = %7
  %12 = getelementptr inbounds nuw i8, ptr %8, i64 8
  br label %get_sensor_info.exit

13:                                               ; preds = %6
  %14 = icmp ugt i8 %4, -65
  %get_sensor_info.si_oem.get_sensor_info.si_rsrv.i = select i1 %14, ptr @get_sensor_info.si_oem, ptr @get_sensor_info.si_rsrv
  br label %get_sensor_info.exit

get_sensor_info.exit:                             ; preds = %11, %13
  %.08.i = phi ptr [ %12, %11 ], [ %get_sensor_info.si_oem.get_sensor_info.si_rsrv.i, %13 ]
  %15 = load i32, ptr @hf_ipmi_se_2f_stype, align 4
  %16 = getelementptr inbounds nuw i8, ptr %.08.i, i64 24
  %17 = load ptr, ptr %16, align 8
  %18 = tail call ptr (ptr, i32, ptr, i32, i32, i32, ptr, ...) @proto_tree_add_uint_format_value(ptr noundef %2, i32 noundef %15, ptr noundef %0, i32 noundef 0, i32 noundef 1, i32 noundef %5, ptr noundef nonnull @.str.783, ptr noundef %17, i32 noundef %5)
  %19 = load i32, ptr @hf_ipmi_se_2f_evtype, align 4
  %20 = tail call ptr @proto_tree_add_item(ptr noundef %2, i32 noundef %19, ptr noundef %0, i32 noundef 1, i32 noundef 1, i32 noundef -2147483648)
  ret void
}